target datalayout = "e-m:e-p270:32:32-p271:32:32-p272:64:64-i64:64-i128:128-f80:128-n8:16:32:64-S128"
target triple = "x86_64-pc-linux-gnu"

%struct.AHCIState = type { ptr, %struct.AHCIControlRegs, %struct.MemoryRegion, %struct.MemoryRegion, i32, i32, i32, ptr, ptr }
%struct.AHCIControlRegs = type { i32, i32, i32, i32, i32 }
%struct.MemoryRegion = type { %struct.Object, i8, i8, i8, i8, i8, i8, i8, i8, i8, i8, ptr, ptr, ptr, ptr, ptr, ptr, i32, i128, i64, ptr, i64, i8, i8, i8, i8, ptr, i64, i32, %union.anon, %union.anon.0, %union.anon.1, ptr, i32, ptr, ptr, i8 }
%struct.Object = type { ptr, ptr, ptr, i32, ptr }
%union.anon = type { %struct.QTailQLink }
%struct.QTailQLink = type { ptr, ptr }
%union.anon.0 = type { %struct.QTailQLink }
%union.anon.1 = type { %struct.QTailQLink }
%struct.AHCIDevice = type { %struct.IDEDMA, %struct.IDEBus, i32, i32, i32, %struct.AHCIPortRegs, ptr, ptr, ptr, ptr, i8, i32, i8, ptr, [32 x %struct.NCQTransferState], %struct.MemReentrancyGuard }
%struct.IDEDMA = type { ptr, %struct.QEMUIOVector, ptr }
%struct.QEMUIOVector = type { ptr, i32, %union.anon.3 }
%union.anon.3 = type { %struct.anon.4 }
%struct.anon.4 = type { i32, %struct.iovec }
%struct.iovec = type { ptr, i64 }
%struct.IDEBus = type { %struct.BusState, ptr, ptr, [2 x %struct.IDEState], ptr, i32, i32, ptr, i8, i8, ptr, i32, i8, i64, i32, %struct.PortioList, %struct.PortioList, ptr }
%struct.BusState = type { %struct.Object, ptr, ptr, ptr, i32, i8, i8, i32, %union.BusChildHead, %struct.BusStateEntry, %struct.ResettableState }
%union.BusChildHead = type { %struct.QTailQLink }
%struct.BusStateEntry = type { ptr, ptr }
%struct.ResettableState = type { i32, i8, i8 }
%struct.IDEState = type { ptr, i8, i32, i32, i32, i32, i32, i32, i32, i64, i32, i32, [512 x i8], i32, [21 x i8], [41 x i8], i8, i64, i8, i8, i32, i8, i8, i8, i8, i8, i8, i8, i8, i8, i8, i8, i8, i8, ptr, [9 x i8], %struct.unreported_events, i8, i8, i8, i8, i8, i32, i32, i32, i32, i32, i32, %struct.BlockAcctCookie, ptr, %struct.QEMUIOVector, %struct.anon.6, i64, i32, %struct.QEMUSGList, i32, ptr, ptr, ptr, ptr, i32, i32, i32, i8, ptr, i32, i8, i32, ptr, i32, i32, i8, i8, i32, i8, ptr, i32 }
%struct.unreported_events = type { i8, i8 }
%struct.BlockAcctCookie = type { i64, i64, i32 }
%struct.anon.6 = type { ptr }
%struct.QEMUSGList = type { ptr, i32, i32, i64, ptr, ptr }
%struct.PortioList = type { ptr, ptr, ptr, i32, i32, ptr, ptr, ptr, i8 }
%struct.AHCIPortRegs = type { i32, i32, i32, i32, i32, i32, i32, i32, i32, i32, i32, i32, i32, i32, i32, i32 }
%struct.NCQTransferState = type { ptr, ptr, ptr, %struct.QEMUSGList, %struct.BlockAcctCookie, i32, i64, i8, i8, i8, i8, i8 }
%struct.MemReentrancyGuard = type { i8 }
%struct.timeval = type { i64, i64 }

@trace_events_enabled_count = external global i32, align 4
@message_with_timestamp = external global i8, align 1
@qemu_loglevel = external global i32, align 4
@_TRACE_AHCI_CHECK_IRQ_DSTATE = external global i16, align 2
@.str.65 = private unnamed_addr constant [67 x i8] c"%d@%zu.%06zu:ahci_check_irq ahci(%p): check irq 0x%08x --> 0x%08x\0A\00", align 1
@.str.66 = private unnamed_addr constant [54 x i8] c"ahci_check_irq ahci(%p): check irq 0x%08x --> 0x%08x\0A\00", align 1
@_TRACE_AHCI_IRQ_RAISE_DSTATE = external global i16, align 2
@.str.67 = private unnamed_addr constant [49 x i8] c"%d@%zu.%06zu:ahci_irq_raise ahci(%p): raise irq\0A\00", align 1
@.str.68 = private unnamed_addr constant [36 x i8] c"ahci_irq_raise ahci(%p): raise irq\0A\00", align 1
@_TRACE_AHCI_IRQ_LOWER_DSTATE = external global i16, align 2
@.str.69 = private unnamed_addr constant [49 x i8] c"%d@%zu.%06zu:ahci_irq_lower ahci(%p): lower irq\0A\00", align 1
@.str.70 = private unnamed_addr constant [36 x i8] c"ahci_irq_lower ahci(%p): lower irq\0A\00", align 1

; Function Attrs: inlinehint nounwind sspstrong uwtable
define internal zeroext i1 @qemu_loglevel_mask(i32 noundef %0) #7 {
  %2 = alloca i32, align 4
  store i32 %0, ptr %2, align 4
  %3 = load i32, ptr @qemu_loglevel, align 4
  %4 = load i32, ptr %2, align 4
  %5 = and i32 %3, %4
  %6 = icmp ne i32 %5, 0
  ret i1 %6
}

; Function Attrs: inlinehint nounwind sspstrong uwtable
define internal void @_nocheck__trace_ahci_irq_lower(ptr noundef %0) #7 {
  %2 = alloca ptr, align 8
  %3 = alloca %struct.timeval, align 8
  store ptr %0, ptr %2, align 8
  %4 = load i32, ptr @trace_events_enabled_count, align 4
  %5 = icmp ne i32 %4, 0
  %6 = xor i1 %5, true
  %7 = xor i1 %6, true
  %8 = zext i1 %7 to i32
  %9 = sext i32 %8 to i64
  %10 = call i64 @llvm.expect.i64(i64 %9, i64 0)
  %11 = icmp ne i64 %10, 0
  br i1 %11, label %12, label %32

12:                                               ; preds = %1
  %13 = load i16, ptr @_TRACE_AHCI_IRQ_LOWER_DSTATE, align 2
  %14 = zext i16 %13 to i32
  %15 = icmp ne i32 %14, 0
  br i1 %15, label %16, label %32

16:                                               ; preds = %12
  %17 = call zeroext i1 @qemu_loglevel_mask(i32 noundef 32768)
  br i1 %17, label %18, label %32

18:                                               ; preds = %16
  %19 = load i8, ptr @message_with_timestamp, align 1, !range !11, !noundef !12
  %20 = trunc i8 %19 to i1
  br i1 %20, label %21, label %29

21:                                               ; preds = %18
  call void @llvm.lifetime.start.p0(i64 16, ptr %3) #15
  call void @llvm.memset.p0.i64(ptr align 8 %3, i8 0, i64 16, i1 false), !annotation !4
  %22 = call i32 @gettimeofday(ptr noundef %3, ptr noundef null) #15
  %23 = call i32 @qemu_get_thread_id()
  %24 = getelementptr inbounds nuw %struct.timeval, ptr %3, i32 0, i32 0
  %25 = load i64, ptr %24, align 8
  %26 = getelementptr inbounds nuw %struct.timeval, ptr %3, i32 0, i32 1
  %27 = load i64, ptr %26, align 8
  %28 = load ptr, ptr %2, align 8
  call void (ptr, ...) @qemu_log(ptr noundef @.str.69, i32 noundef %23, i64 noundef %25, i64 noundef %27, ptr noundef %28)
  call void @llvm.lifetime.end.p0(i64 16, ptr %3) #15
  br label %31

29:                                               ; preds = %18
  %30 = load ptr, ptr %2, align 8
  call void (ptr, ...) @qemu_log(ptr noundef @.str.70, ptr noundef %30)
  br label %31

31:                                               ; preds = %29, %21
  br label %32

32:                                               ; preds = %31, %16, %12, %1
  ret void
}

; Function Attrs: inlinehint nounwind sspstrong uwtable
define internal void @_nocheck__trace_ahci_irq_raise(ptr noundef %0) #7 {
  %2 = alloca ptr, align 8
  %3 = alloca %struct.timeval, align 8
  store ptr %0, ptr %2, align 8
  %4 = load i32, ptr @trace_events_enabled_count, align 4
  %5 = icmp ne i32 %4, 0
  %6 = xor i1 %5, true
  %7 = xor i1 %6, true
  %8 = zext i1 %7 to i32
  %9 = sext i32 %8 to i64
  %10 = call i64 @llvm.expect.i64(i64 %9, i64 0)
  %11 = icmp ne i64 %10, 0
  br i1 %11, label %12, label %32

12:                                               ; preds = %1
  %13 = load i16, ptr @_TRACE_AHCI_IRQ_RAISE_DSTATE, align 2
  %14 = zext i16 %13 to i32
  %15 = icmp ne i32 %14, 0
  br i1 %15, label %16, label %32

16:                                               ; preds = %12
  %17 = call zeroext i1 @qemu_loglevel_mask(i32 noundef 32768)
  br i1 %17, label %18, label %32

18:                                               ; preds = %16
  %19 = load i8, ptr @message_with_timestamp, align 1, !range !11, !noundef !12
  %20 = trunc i8 %19 to i1
  br i1 %20, label %21, label %29

21:                                               ; preds = %18
  call void @llvm.lifetime.start.p0(i64 16, ptr %3) #15
  call void @llvm.memset.p0.i64(ptr align 8 %3, i8 0, i64 16, i1 false), !annotation !4
  %22 = call i32 @gettimeofday(ptr noundef %3, ptr noundef null) #15
  %23 = call i32 @qemu_get_thread_id()
  %24 = getelementptr inbounds nuw %struct.timeval, ptr %3, i32 0, i32 0
  %25 = load i64, ptr %24, align 8
  %26 = getelementptr inbounds nuw %struct.timeval, ptr %3, i32 0, i32 1
  %27 = load i64, ptr %26, align 8
  %28 = load ptr, ptr %2, align 8
  call void (ptr, ...) @qemu_log(ptr noundef @.str.67, i32 noundef %23, i64 noundef %25, i64 noundef %27, ptr noundef %28)
  call void @llvm.lifetime.end.p0(i64 16, ptr %3) #15
  br label %31

29:                                               ; preds = %18
  %30 = load ptr, ptr %2, align 8
  call void (ptr, ...) @qemu_log(ptr noundef @.str.68, ptr noundef %30)
  br label %31

31:                                               ; preds = %29, %21
  br label %32

32:                                               ; preds = %31, %16, %12, %1
  ret void
}

; Function Attrs: inlinehint nounwind sspstrong uwtable
define internal void @_nocheck__trace_ahci_check_irq(ptr noundef %0, i32 noundef %1, i32 noundef %2) #7 {
  %4 = alloca ptr, align 8
  %5 = alloca i32, align 4
  %6 = alloca i32, align 4
  %7 = alloca %struct.timeval, align 8
  store ptr %0, ptr %4, align 8
  store i32 %1, ptr %5, align 4
  store i32 %2, ptr %6, align 4
  %8 = load i32, ptr @trace_events_enabled_count, align 4
  %9 = icmp ne i32 %8, 0
  %10 = xor i1 %9, true
  %11 = xor i1 %10, true
  %12 = zext i1 %11 to i32
  %13 = sext i32 %12 to i64
  %14 = call i64 @llvm.expect.i64(i64 %13, i64 0)
  %15 = icmp ne i64 %14, 0
  br i1 %15, label %16, label %40

16:                                               ; preds = %3
  %17 = load i16, ptr @_TRACE_AHCI_CHECK_IRQ_DSTATE, align 2
  %18 = zext i16 %17 to i32
  %19 = icmp ne i32 %18, 0
  br i1 %19, label %20, label %40

20:                                               ; preds = %16
  %21 = call zeroext i1 @qemu_loglevel_mask(i32 noundef 32768)
  br i1 %21, label %22, label %40

22:                                               ; preds = %20
  %23 = load i8, ptr @message_with_timestamp, align 1, !range !11, !noundef !12
  %24 = trunc i8 %23 to i1
  br i1 %24, label %25, label %35

25:                                               ; preds = %22
  call void @llvm.lifetime.start.p0(i64 16, ptr %7) #15
  call void @llvm.memset.p0.i64(ptr align 8 %7, i8 0, i64 16, i1 false), !annotation !4
  %26 = call i32 @gettimeofday(ptr noundef %7, ptr noundef null) #15
  %27 = call i32 @qemu_get_thread_id()
  %28 = getelementptr inbounds nuw %struct.timeval, ptr %7, i32 0, i32 0
  %29 = load i64, ptr %28, align 8
  %30 = getelementptr inbounds nuw %struct.timeval, ptr %7, i32 0, i32 1
  %31 = load i64, ptr %30, align 8
  %32 = load ptr, ptr %4, align 8
  %33 = load i32, ptr %5, align 4
  %34 = load i32, ptr %6, align 4
  call void (ptr, ...) @qemu_log(ptr noundef @.str.65, i32 noundef %27, i64 noundef %29, i64 noundef %31, ptr noundef %32, i32 noundef %33, i32 noundef %34)
  call void @llvm.lifetime.end.p0(i64 16, ptr %7) #15
  br label %39

35:                                               ; preds = %22
  %36 = load ptr, ptr %4, align 8
  %37 = load i32, ptr %5, align 4
  %38 = load i32, ptr %6, align 4
  call void (ptr, ...) @qemu_log(ptr noundef @.str.66, ptr noundef %36, i32 noundef %37, i32 noundef %38)
  br label %39

39:                                               ; preds = %35, %25
  br label %40

40:                                               ; preds = %39, %20, %16, %3
  ret void
}

; Function Attrs: inlinehint nounwind sspstrong uwtable
define internal void @qemu_irq_lower(ptr noundef %0) #7 {
  %2 = alloca ptr, align 8
  store ptr %0, ptr %2, align 8
  %3 = load ptr, ptr %2, align 8
  call void @qemu_set_irq(ptr noundef %3, i32 noundef 0)
  ret void
}

; Function Attrs: inlinehint nounwind sspstrong uwtable
define internal void @trace_ahci_irq_lower(ptr noundef %0) #7 {
  %2 = alloca ptr, align 8
  store ptr %0, ptr %2, align 8
  %3 = load ptr, ptr %2, align 8
  call void @_nocheck__trace_ahci_irq_lower(ptr noundef %3)
  ret void
}

; Function Attrs: inlinehint nounwind sspstrong uwtable
define internal void @qemu_irq_raise(ptr noundef %0) #7 {
  %2 = alloca ptr, align 8
  store ptr %0, ptr %2, align 8
  %3 = load ptr, ptr %2, align 8
  call void @qemu_set_irq(ptr noundef %3, i32 noundef 1)
  ret void
}

; Function Attrs: inlinehint nounwind sspstrong uwtable
define internal void @trace_ahci_irq_raise(ptr noundef %0) #7 {
  %2 = alloca ptr, align 8
  store ptr %0, ptr %2, align 8
  %3 = load ptr, ptr %2, align 8
  call void @_nocheck__trace_ahci_irq_raise(ptr noundef %3)
  ret void
}

; Function Attrs: inlinehint nounwind sspstrong uwtable
define internal void @trace_ahci_check_irq(ptr noundef %0, i32 noundef %1, i32 noundef %2) #7 {
  %4 = alloca ptr, align 8
  %5 = alloca i32, align 4
  %6 = alloca i32, align 4
  store ptr %0, ptr %4, align 8
  store i32 %1, ptr %5, align 4
  store i32 %2, ptr %6, align 4
  %7 = load ptr, ptr %4, align 8
  %8 = load i32, ptr %5, align 4
  %9 = load i32, ptr %6, align 4
  call void @_nocheck__trace_ahci_check_irq(ptr noundef %7, i32 noundef %8, i32 noundef %9)
  ret void
}

; Function Attrs: nounwind sspstrong uwtable
define internal void @ahci_check_irq(ptr noundef %0) #0 {
  %2 = alloca ptr, align 8
  %3 = alloca i32, align 4
  %4 = alloca i32, align 4
  %5 = alloca ptr, align 8
  store ptr %0, ptr %2, align 8
  call void @llvm.lifetime.start.p0(i64 4, ptr %3) #15
  store i32 0, ptr %3, align 4, !annotation !4
  call void @llvm.lifetime.start.p0(i64 4, ptr %4) #15
  %6 = load ptr, ptr %2, align 8
  %7 = getelementptr inbounds nuw %struct.AHCIState, ptr %6, i32 0, i32 1
  %8 = getelementptr inbounds nuw %struct.AHCIControlRegs, ptr %7, i32 0, i32 2
  %9 = load i32, ptr %8, align 8
  store i32 %9, ptr %4, align 4
  %10 = load ptr, ptr %2, align 8
  %11 = getelementptr inbounds nuw %struct.AHCIState, ptr %10, i32 0, i32 1
  %12 = getelementptr inbounds nuw %struct.AHCIControlRegs, ptr %11, i32 0, i32 2
  store i32 0, ptr %12, align 8
  store i32 0, ptr %3, align 4
  br label %13

13:                                               ; preds = %44, %1
  %14 = load i32, ptr %3, align 4
  %15 = load ptr, ptr %2, align 8
  %16 = getelementptr inbounds nuw %struct.AHCIState, ptr %15, i32 0, i32 6
  %17 = load i32, ptr %16, align 8
  %18 = icmp ult i32 %14, %17
  br i1 %18, label %19, label %47

19:                                               ; preds = %13
  call void @llvm.lifetime.start.p0(i64 8, ptr %5) #15
  %20 = load ptr, ptr %2, align 8
  %21 = getelementptr inbounds nuw %struct.AHCIState, ptr %20, i32 0, i32 0
  %22 = load ptr, ptr %21, align 16
  %23 = load i32, ptr %3, align 4
  %24 = sext i32 %23 to i64
  %25 = getelementptr inbounds %struct.AHCIDevice, ptr %22, i64 %24
  %26 = getelementptr inbounds nuw %struct.AHCIDevice, ptr %25, i32 0, i32 5
  store ptr %26, ptr %5, align 8
  %27 = load ptr, ptr %5, align 8
  %28 = getelementptr inbounds nuw %struct.AHCIPortRegs, ptr %27, i32 0, i32 4
  %29 = load i32, ptr %28, align 4
  %30 = load ptr, ptr %5, align 8
  %31 = getelementptr inbounds nuw %struct.AHCIPortRegs, ptr %30, i32 0, i32 5
  %32 = load i32, ptr %31, align 4
  %33 = and i32 %29, %32
  %34 = icmp ne i32 %33, 0
  br i1 %34, label %35, label %43

35:                                               ; preds = %19
  %36 = load i32, ptr %3, align 4
  %37 = shl i32 1, %36
  %38 = load ptr, ptr %2, align 8
  %39 = getelementptr inbounds nuw %struct.AHCIState, ptr %38, i32 0, i32 1
  %40 = getelementptr inbounds nuw %struct.AHCIControlRegs, ptr %39, i32 0, i32 2
  %41 = load i32, ptr %40, align 8
  %42 = or i32 %41, %37
  store i32 %42, ptr %40, align 8
  br label %43

43:                                               ; preds = %35, %19
  call void @llvm.lifetime.end.p0(i64 8, ptr %5) #15
  br label %44

44:                                               ; preds = %43
  %45 = load i32, ptr %3, align 4
  %46 = add i32 %45, 1
  store i32 %46, ptr %3, align 4
  br label %13, !llvm.loop !17

47:                                               ; preds = %13
  %48 = load ptr, ptr %2, align 8
  %49 = load i32, ptr %4, align 4
  %50 = load ptr, ptr %2, align 8
  %51 = getelementptr inbounds nuw %struct.AHCIState, ptr %50, i32 0, i32 1
  %52 = getelementptr inbounds nuw %struct.AHCIControlRegs, ptr %51, i32 0, i32 2
  %53 = load i32, ptr %52, align 8
  call void @trace_ahci_check_irq(ptr noundef %48, i32 noundef %49, i32 noundef %53)
  %54 = load ptr, ptr %2, align 8
  %55 = getelementptr inbounds nuw %struct.AHCIState, ptr %54, i32 0, i32 1
  %56 = getelementptr inbounds nuw %struct.AHCIControlRegs, ptr %55, i32 0, i32 2
  %57 = load i32, ptr %56, align 8
  %58 = icmp ne i32 %57, 0
  br i1 %58, label %59, label %71

59:                                               ; preds = %47
  %60 = load ptr, ptr %2, align 8
  %61 = getelementptr inbounds nuw %struct.AHCIState, ptr %60, i32 0, i32 1
  %62 = getelementptr inbounds nuw %struct.AHCIControlRegs, ptr %61, i32 0, i32 1
  %63 = load i32, ptr %62, align 4
  %64 = and i32 %63, 2
  %65 = icmp ne i32 %64, 0
  br i1 %65, label %66, label %71

66:                                               ; preds = %59
  %67 = load ptr, ptr %2, align 8
  call void @trace_ahci_irq_raise(ptr noundef %67)
  %68 = load ptr, ptr %2, align 8
  %69 = getelementptr inbounds nuw %struct.AHCIState, ptr %68, i32 0, i32 7
  %70 = load ptr, ptr %69, align 16
  call void @qemu_irq_raise(ptr noundef %70)
  br label %76

71:                                               ; preds = %59, %47
  %72 = load ptr, ptr %2, align 8
  call void @trace_ahci_irq_lower(ptr noundef %72)
  %73 = load ptr, ptr %2, align 8
  %74 = getelementptr inbounds nuw %struct.AHCIState, ptr %73, i32 0, i32 7
  %75 = load ptr, ptr %74, align 16
  call void @qemu_irq_lower(ptr noundef %75)
  br label %76

76:                                               ; preds = %71, %66
  call void @llvm.lifetime.end.p0(i64 4, ptr %4) #15
  call void @llvm.lifetime.end.p0(i64 4, ptr %3) #15
  ret void
}