; Function Attrs: nounwind sspstrong uwtable
define internal fastcc void @ahci_check_irq(ptr noundef %0) unnamed_addr #0 {
  %2 = alloca %struct.timeval, align 8
  %3 = alloca %struct.timeval, align 8
  %4 = alloca %struct.timeval, align 8
  %5 = getelementptr inbounds nuw i8, ptr %0, i64 16
  %6 = load i32, ptr %5, align 8
  store i32 0, ptr %5, align 8
  %7 = getelementptr inbounds nuw i8, ptr %0, i64 584
  %8 = load i32, ptr %7, align 8
  %.not26 = icmp eq i32 %8, 0
  br i1 %.not26, label %._crit_edge, label %.lr.ph

.lr.ph:                                           ; preds = %1
  %9 = load ptr, ptr %0, align 16
  br label %10

10:                                               ; preds = %.lr.ph, %22
  %11 = phi i32 [ 0, %.lr.ph ], [ %23, %22 ]
  %.025 = phi i32 [ 0, %.lr.ph ], [ %24, %22 ]
  %12 = sext i32 %.025 to i64
  %13 = getelementptr inbounds %struct.AHCIDevice, ptr %9, i64 %12, i32 5
  %14 = getelementptr inbounds nuw i8, ptr %13, i64 16
  %15 = load i32, ptr %14, align 4
  %16 = getelementptr inbounds nuw i8, ptr %13, i64 20
  %17 = load i32, ptr %16, align 4
  %18 = and i32 %17, %15
  %.not20 = icmp eq i32 %18, 0
  br i1 %.not20, label %22, label %19

19:                                               ; preds = %10
  %20 = shl nuw i32 1, %.025
  %21 = or i32 %11, %20
  store i32 %21, ptr %5, align 8
  br label %22

22:                                               ; preds = %19, %10
  %23 = phi i32 [ %21, %19 ], [ %11, %10 ]
  %24 = add nuw i32 %.025, 1
  %exitcond.not = icmp eq i32 %24, %8
  br i1 %exitcond.not, label %._crit_edge, label %10, !llvm.loop !22

._crit_edge:                                      ; preds = %22, %1
  %25 = phi i32 [ 0, %1 ], [ %23, %22 ]
  %26 = load i32, ptr @trace_events_enabled_count, align 4
  %.not.i.i = icmp eq i32 %26, 0
  br i1 %.not.i.i, label %trace_ahci_check_irq.exit, label %27, !prof !7

27:                                               ; preds = %._crit_edge
  %28 = load i16, ptr @_TRACE_AHCI_CHECK_IRQ_DSTATE, align 2
  %.not5.i.i = icmp eq i16 %28, 0
  br i1 %.not5.i.i, label %trace_ahci_check_irq.exitthread-pre-split, label %29

29:                                               ; preds = %27
  %30 = load i32, ptr @qemu_loglevel, align 4
  %31 = and i32 %30, 32768
  %.not6.i.i = icmp eq i32 %31, 0
  br i1 %.not6.i.i, label %trace_ahci_check_irq.exitthread-pre-split, label %32

32:                                               ; preds = %29
  %33 = load i8, ptr @message_with_timestamp, align 1, !range !9, !noundef !10
  %34 = trunc nuw i8 %33 to i1
  br i1 %34, label %35, label %41

35:                                               ; preds = %32
  call void @llvm.lifetime.start.p0(i64 16, ptr nonnull %4) #14
  call void @llvm.memset.p0.i64(ptr noundef nonnull align 8 dereferenceable(16) %4, i8 0, i64 16, i1 false), !annotation !11
  %36 = call i32 @gettimeofday(ptr noundef nonnull %4, ptr noundef null) #14
  %37 = tail call i32 @qemu_get_thread_id() #14
  %38 = load i64, ptr %4, align 8
  %39 = getelementptr inbounds nuw i8, ptr %4, i64 8
  %40 = load i64, ptr %39, align 8
  tail call void (ptr, ...) @qemu_log(ptr noundef nonnull @.str.65, i32 noundef %37, i64 noundef %38, i64 noundef %40, ptr noundef nonnull %0, i32 noundef %6, i32 noundef %25) #14
  call void @llvm.lifetime.end.p0(i64 16, ptr nonnull %4) #14
  br label %trace_ahci_check_irq.exitthread-pre-split

41:                                               ; preds = %32
  tail call void (ptr, ...) @qemu_log(ptr noundef nonnull @.str.66, ptr noundef nonnull %0, i32 noundef %6, i32 noundef %25) #14
  br label %trace_ahci_check_irq.exitthread-pre-split

trace_ahci_check_irq.exitthread-pre-split:        ; preds = %41, %35, %29, %27
  %.pr = load i32, ptr %5, align 8
  br label %trace_ahci_check_irq.exit

trace_ahci_check_irq.exit:                        ; preds = %trace_ahci_check_irq.exitthread-pre-split, %._crit_edge
  %42 = phi i32 [ %.pr, %trace_ahci_check_irq.exitthread-pre-split ], [ %25, %._crit_edge ]
  %.not = icmp eq i32 %42, 0
  br i1 %.not, label %trace_ahci_check_irq.exit._crit_edge, label %43

trace_ahci_check_irq.exit._crit_edge:             ; preds = %trace_ahci_check_irq.exit
  %.pre = load i32, ptr @trace_events_enabled_count, align 4
  br label %63

43:                                               ; preds = %trace_ahci_check_irq.exit
  %44 = getelementptr inbounds nuw i8, ptr %0, i64 12
  %45 = load i32, ptr %44, align 4
  %46 = and i32 %45, 2
  %.not19 = icmp eq i32 %46, 0
  %.pre27 = load i32, ptr @trace_events_enabled_count, align 4
  br i1 %.not19, label %63, label %47

47:                                               ; preds = %43
  %.not.i.i21 = icmp eq i32 %.pre27, 0
  br i1 %.not.i.i21, label %trace_ahci_irq_raise.exit, label %48, !prof !7

48:                                               ; preds = %47
  %49 = load i16, ptr @_TRACE_AHCI_IRQ_RAISE_DSTATE, align 2
  %.not2.i.i = icmp eq i16 %49, 0
  br i1 %.not2.i.i, label %trace_ahci_irq_raise.exit, label %50

50:                                               ; preds = %48
  %51 = load i32, ptr @qemu_loglevel, align 4
  %52 = and i32 %51, 32768
  %.not3.i.i = icmp eq i32 %52, 0
  br i1 %.not3.i.i, label %trace_ahci_irq_raise.exit, label %53

53:                                               ; preds = %50
  %54 = load i8, ptr @message_with_timestamp, align 1, !range !9, !noundef !10
  %55 = trunc nuw i8 %54 to i1
  br i1 %55, label %56, label %62

56:                                               ; preds = %53
  call void @llvm.lifetime.start.p0(i64 16, ptr nonnull %3) #14
  call void @llvm.memset.p0.i64(ptr noundef nonnull align 8 dereferenceable(16) %3, i8 0, i64 16, i1 false), !annotation !11
  %57 = call i32 @gettimeofday(ptr noundef nonnull %3, ptr noundef null) #14
  %58 = tail call i32 @qemu_get_thread_id() #14
  %59 = load i64, ptr %3, align 8
  %60 = getelementptr inbounds nuw i8, ptr %3, i64 8
  %61 = load i64, ptr %60, align 8
  tail call void (ptr, ...) @qemu_log(ptr noundef nonnull @.str.67, i32 noundef %58, i64 noundef %59, i64 noundef %61, ptr noundef nonnull %0) #14
  call void @llvm.lifetime.end.p0(i64 16, ptr nonnull %3) #14
  br label %trace_ahci_irq_raise.exit

62:                                               ; preds = %53
  tail call void (ptr, ...) @qemu_log(ptr noundef nonnull @.str.68, ptr noundef nonnull %0) #14
  br label %trace_ahci_irq_raise.exit

63:                                               ; preds = %trace_ahci_check_irq.exit._crit_edge, %43
  %64 = phi i32 [ %.pre, %trace_ahci_check_irq.exit._crit_edge ], [ %.pre27, %43 ]
  %.not.i.i22 = icmp eq i32 %64, 0
  br i1 %.not.i.i22, label %trace_ahci_irq_raise.exit, label %65, !prof !7

65:                                               ; preds = %63
  %66 = load i16, ptr @_TRACE_AHCI_IRQ_LOWER_DSTATE, align 2
  %.not2.i.i23 = icmp eq i16 %66, 0
  br i1 %.not2.i.i23, label %trace_ahci_irq_raise.exit, label %67

67:                                               ; preds = %65
  %68 = load i32, ptr @qemu_loglevel, align 4
  %69 = and i32 %68, 32768
  %.not3.i.i24 = icmp eq i32 %69, 0
  br i1 %.not3.i.i24, label %trace_ahci_irq_raise.exit, label %70

70:                                               ; preds = %67
  %71 = load i8, ptr @message_with_timestamp, align 1, !range !9, !noundef !10
  %72 = trunc nuw i8 %71 to i1
  br i1 %72, label %73, label %79

73:                                               ; preds = %70
  call void @llvm.lifetime.start.p0(i64 16, ptr nonnull %2) #14
  call void @llvm.memset.p0.i64(ptr noundef nonnull align 8 dereferenceable(16) %2, i8 0, i64 16, i1 false), !annotation !11
  %74 = call i32 @gettimeofday(ptr noundef nonnull %2, ptr noundef null) #14
  %75 = tail call i32 @qemu_get_thread_id() #14
  %76 = load i64, ptr %2, align 8
  %77 = getelementptr inbounds nuw i8, ptr %2, i64 8
  %78 = load i64, ptr %77, align 8
  tail call void (ptr, ...) @qemu_log(ptr noundef nonnull @.str.69, i32 noundef %75, i64 noundef %76, i64 noundef %78, ptr noundef nonnull %0) #14
  call void @llvm.lifetime.end.p0(i64 16, ptr nonnull %2) #14
  br label %trace_ahci_irq_raise.exit

79:                                               ; preds = %70
  tail call void (ptr, ...) @qemu_log(ptr noundef nonnull @.str.70, ptr noundef nonnull %0) #14
  br label %trace_ahci_irq_raise.exit

trace_ahci_irq_raise.exit:                        ; preds = %79, %73, %67, %65, %63, %62, %56, %50, %48, %47
  %.sink28 = phi i32 [ 1, %47 ], [ 1, %48 ], [ 1, %50 ], [ 1, %56 ], [ 1, %62 ], [ 0, %63 ], [ 0, %65 ], [ 0, %67 ], [ 0, %73 ], [ 0, %79 ]
  %80 = getelementptr inbounds nuw i8, ptr %0, i64 592
  %81 = load ptr, ptr %80, align 16
  tail call void @qemu_set_irq(ptr noundef %81, i32 noundef %.sink28) #14
  ret void
}